target datalayout = "e-m:e-p270:32:32-p271:32:32-p272:64:64-i64:64-i128:128-f80:128-n8:16:32:64-S128"
target triple = "x86_64-pc-linux-gnu"

%struct.ggml_hash_set = type { i64, ptr, ptr }
%struct.ggml_backend_sched = type { i8, i8, i32, [16 x ptr], [16 x ptr], ptr, %struct.ggml_hash_set, ptr, ptr, ptr, ptr, ptr, ptr, %struct.ggml_cgraph, ptr, i32, i32, i32, i32, [16 x [4 x ptr]], [10 x ptr], i32, ptr, ptr, ptr, ptr, i64, i32 }
%struct.ggml_cgraph = type { i32, i32, i32, ptr, ptr, ptr, ptr, %struct.ggml_hash_set, i32 }

@.str = private unnamed_addr constant [123 x i8] c"generated/home/dtcxzyw/WorkSpace/Projects/compilers/llvm-opt-benchmark/bench/llama.cpp/llama.cpp/ggml/src/ggml-backend.cpp\00", align 1
@.str.1 = private unnamed_addr constant [23 x i8] c"GGML_ASSERT(%s) failed\00", align 1
@.str.26 = private unnamed_addr constant [32 x i8] c"i >= 0 && i < sched->n_backends\00", align 1

; Function Attrs: mustprogress uwtable
define ptr @ggml_backend_sched_get_backend(ptr noundef %0, i32 noundef %1) #0 {
  %3 = alloca ptr, align 8
  %4 = alloca i32, align 4
  store ptr %0, ptr %3, align 8, !tbaa !131
  store i32 %1, ptr %4, align 4, !tbaa !89
  %5 = load i32, ptr %4, align 4, !tbaa !89
  %6 = icmp sge i32 %5, 0
  br i1 %6, label %7, label %13

7:                                                ; preds = %2
  %8 = load i32, ptr %4, align 4, !tbaa !89
  %9 = load ptr, ptr %3, align 8, !tbaa !131
  %10 = getelementptr inbounds nuw %struct.ggml_backend_sched, ptr %9, i32 0, i32 2
  %11 = load i32, ptr %10, align 4, !tbaa !143
  %12 = icmp slt i32 %8, %11
  br i1 %12, label %14, label %13

13:                                               ; preds = %7, %2
  call void (ptr, i32, ptr, ...) @ggml_abort(ptr noundef @.str, i32 noundef 1615, ptr noundef @.str.1, ptr noundef @.str.26) #18
  unreachable

14:                                               ; preds = %7
  %15 = load ptr, ptr %3, align 8, !tbaa !131
  %16 = getelementptr inbounds nuw %struct.ggml_backend_sched, ptr %15, i32 0, i32 3
  %17 = load i32, ptr %4, align 4, !tbaa !89
  %18 = sext i32 %17 to i64
  %19 = getelementptr inbounds [16 x ptr], ptr %16, i64 0, i64 %18
  %20 = load ptr, ptr %19, align 8, !tbaa !56
  ret ptr %20
}