; Function Attrs: mustprogress uwtable
define ptr @ggml_backend_sched_get_backend(ptr noundef readonly captures(none) %0, i32 noundef %1) local_unnamed_addr #0 {
  %3 = icmp sgt i32 %1, -1
  br i1 %3, label %4, label %8

4:                                                ; preds = %2
  %5 = getelementptr inbounds nuw i8, ptr %0, i64 4
  %6 = load i32, ptr %5, align 4, !tbaa !115
  %7 = icmp slt i32 %1, %6
  br i1 %7, label %9, label %8

8:                                                ; preds = %4, %2
  tail call void (ptr, i32, ptr, ...) @ggml_abort(ptr noundef nonnull @.str, i32 noundef 1615, ptr noundef nonnull @.str.1, ptr noundef nonnull @.str.26) #24
  unreachable

9:                                                ; preds = %4
  %10 = getelementptr inbounds nuw i8, ptr %0, i64 8
  %11 = zext nneg i32 %1 to i64
  %12 = getelementptr inbounds nuw [16 x ptr], ptr %10, i64 0, i64 %11
  %13 = load ptr, ptr %12, align 8, !tbaa !102
  ret ptr %13
}